#include <math.h>
#include <stdio.h>
#include <stdlib.h>
#include <string.h>

void main()
{
	int i=0,n,m=0,t=0;

	do
	{
		i=i+1;
		scanf("%d",&n);
		if(n>m)
		{
		    t=m;
		    m=n;
		}
		else if(n>t&&n!=m)
			t=n;
		else if(n==m)
		    m=m;
		    t=t;
	}while(getchar()!='\n');
	if(i==1||t==0)
	{
		printf("No\n");
	}
	else
	{
		printf("%d\n",t);
	}
	
}