; ModuleID = '22/807.c'
source_filename = "22/807.c"
target datalayout = "e-m:e-p270:32:32-p271:32:32-p272:64:64-i64:64-f80:128-n8:16:32:64-S128"
target triple = "x86_64-pc-linux-gnu"

@.str = private unnamed_addr constant [3 x i8] c"%d\00", align 1
@.str.1 = private unnamed_addr constant [4 x i8] c"No\0A\00", align 1
@.str.2 = private unnamed_addr constant [4 x i8] c"%d\0A\00", align 1

; Function Attrs: noinline nounwind uwtable
define dso_local void @main() #0 {
  %1 = alloca i32, align 4
  %2 = alloca i32, align 4
  %3 = alloca i32, align 4
  %4 = alloca i32, align 4
  store i32 0, i32* %1, align 4
  store i32 0, i32* %3, align 4
  store i32 0, i32* %4, align 4
  br label %5

5:                                                ; preds = %35, %0
  %6 = load i32, i32* %1, align 4
  %7 = add nsw i32 %6, 1
  store i32 %7, i32* %1, align 4
  %8 = call i32 (i8*, ...) @__isoc99_scanf(i8* getelementptr inbounds ([3 x i8], [3 x i8]* @.str, i64 0, i64 0), i32* %2)
  %9 = load i32, i32* %2, align 4
  %10 = load i32, i32* %3, align 4
  %11 = icmp sgt i32 %9, %10
  br i1 %11, label %12, label %15

12:                                               ; preds = %5
  %13 = load i32, i32* %3, align 4
  store i32 %13, i32* %4, align 4
  %14 = load i32, i32* %2, align 4
  store i32 %14, i32* %3, align 4
  br label %33

15:                                               ; preds = %5
  %16 = load i32, i32* %2, align 4
  %17 = load i32, i32* %4, align 4
  %18 = icmp sgt i32 %16, %17
  br i1 %18, label %19, label %25

19:                                               ; preds = %15
  %20 = load i32, i32* %2, align 4
  %21 = load i32, i32* %3, align 4
  %22 = icmp ne i32 %20, %21
  br i1 %22, label %23, label %25

23:                                               ; preds = %19
  %24 = load i32, i32* %2, align 4
  store i32 %24, i32* %4, align 4
  br label %32

25:                                               ; preds = %19, %15
  %26 = load i32, i32* %2, align 4
  %27 = load i32, i32* %3, align 4
  %28 = icmp eq i32 %26, %27
  br i1 %28, label %29, label %31

29:                                               ; preds = %25
  %30 = load i32, i32* %3, align 4
  store i32 %30, i32* %3, align 4
  br label %31

31:                                               ; preds = %29, %25
  br label %32

32:                                               ; preds = %31, %23
  br label %33

33:                                               ; preds = %32, %12
  %34 = load i32, i32* %4, align 4
  store i32 %34, i32* %4, align 4
  br label %35

35:                                               ; preds = %33
  %36 = call i32 @getchar()
  %37 = icmp ne i32 %36, 10
  br i1 %37, label %5, label %38

38:                                               ; preds = %35
  %39 = load i32, i32* %1, align 4
  %40 = icmp eq i32 %39, 1
  br i1 %40, label %44, label %41

41:                                               ; preds = %38
  %42 = load i32, i32* %4, align 4
  %43 = icmp eq i32 %42, 0
  br i1 %43, label %44, label %46

44:                                               ; preds = %41, %38
  %45 = call i32 (i8*, ...) @printf(i8* getelementptr inbounds ([4 x i8], [4 x i8]* @.str.1, i64 0, i64 0))
  br label %49

46:                                               ; preds = %41
  %47 = load i32, i32* %4, align 4
  %48 = call i32 (i8*, ...) @printf(i8* getelementptr inbounds ([4 x i8], [4 x i8]* @.str.2, i64 0, i64 0), i32 %47)
  br label %49

49:                                               ; preds = %46, %44
  ret void
}

declare dso_local i32 @__isoc99_scanf(i8*, ...) #1

declare dso_local i32 @getchar() #1

declare dso_local i32 @printf(i8*, ...) #1


!llvm.module.flags = !{!0}
!llvm.ident = !{!1}

!0 = !{i32 1, !"wchar_size", i32 4}
!1 = !{!"clang version 10.0.0-4ubuntu1 "}
